target datalayout = "e-m:e-p270:32:32-p271:32:32-p272:64:64-i64:64-i128:128-f80:128-n8:16:32:64-S128"
target triple = "x86_64-pc-linux-gnu"

%class.TravelSalesman = type { ptr, ptr, %"class.cv::RNG", i32, i32, i32, i32 }
%"class.cv::RNG" = type { i64 }
%"struct.std::_Vector_base.1" = type { %"struct.std::_Vector_base<int, std::allocator<int>>::_Vector_impl" }
%"struct.std::_Vector_base<int, std::allocator<int>>::_Vector_impl" = type { %"struct.std::_Vector_base<int, std::allocator<int>>::_Vector_impl_data" }
%"struct.std::_Vector_base<int, std::allocator<int>>::_Vector_impl_data" = type { ptr, ptr, ptr }

; Function Attrs: mustprogress nounwind uwtable
define linkonce_odr hidden noundef nonnull align 4 dereferenceable(4) ptr @_ZNSt6vectorIiSaIiEEixEm(ptr noundef nonnull align 8 dereferenceable(24) %0, i64 noundef %1) #5 comdat align 2 {
  %3 = alloca ptr, align 8
  %4 = alloca i64, align 8
  store ptr %0, ptr %3, align 8
  store i64 %1, ptr %4, align 8
  %5 = load ptr, ptr %3, align 8
  %6 = getelementptr inbounds %"struct.std::_Vector_base.1", ptr %5, i32 0, i32 0
  %7 = getelementptr inbounds %"struct.std::_Vector_base<int, std::allocator<int>>::_Vector_impl_data", ptr %6, i32 0, i32 0
  %8 = load ptr, ptr %7, align 8
  %9 = load i64, ptr %4, align 8
  %10 = getelementptr inbounds i32, ptr %8, i64 %9
  ret ptr %10
}

; Function Attrs: mustprogress nounwind uwtable
define hidden void @_ZN14TravelSalesman12reverseStateEv(ptr noundef nonnull align 8 dereferenceable(40) %0) #5 align 2 {
  %2 = alloca ptr, align 8
  store ptr %0, ptr %2, align 8
  %3 = load ptr, ptr %2, align 8
  %4 = getelementptr inbounds %class.TravelSalesman, ptr %3, i32 0, i32 4
  %5 = load i32, ptr %4, align 4
  %6 = getelementptr inbounds %class.TravelSalesman, ptr %3, i32 0, i32 1
  %7 = load ptr, ptr %6, align 8
  %8 = getelementptr inbounds %class.TravelSalesman, ptr %3, i32 0, i32 3
  %9 = load i32, ptr %8, align 8
  %10 = sext i32 %9 to i64
  %11 = call noundef nonnull align 4 dereferenceable(4) ptr @_ZNSt6vectorIiSaIiEEixEm(ptr noundef nonnull align 8 dereferenceable(24) %7, i64 noundef %10) #3
  store i32 %5, ptr %11, align 4
  %12 = getelementptr inbounds %class.TravelSalesman, ptr %3, i32 0, i32 5
  %13 = load i32, ptr %12, align 8
  %14 = getelementptr inbounds %class.TravelSalesman, ptr %3, i32 0, i32 1
  %15 = load ptr, ptr %14, align 8
  %16 = getelementptr inbounds %class.TravelSalesman, ptr %3, i32 0, i32 4
  %17 = load i32, ptr %16, align 4
  %18 = sext i32 %17 to i64
  %19 = call noundef nonnull align 4 dereferenceable(4) ptr @_ZNSt6vectorIiSaIiEEixEm(ptr noundef nonnull align 8 dereferenceable(24) %15, i64 noundef %18) #3
  store i32 %13, ptr %19, align 4
  %20 = getelementptr inbounds %class.TravelSalesman, ptr %3, i32 0, i32 6
  %21 = load i32, ptr %20, align 4
  %22 = getelementptr inbounds %class.TravelSalesman, ptr %3, i32 0, i32 1
  %23 = load ptr, ptr %22, align 8
  %24 = getelementptr inbounds %class.TravelSalesman, ptr %3, i32 0, i32 5
  %25 = load i32, ptr %24, align 8
  %26 = sext i32 %25 to i64
  %27 = call noundef nonnull align 4 dereferenceable(4) ptr @_ZNSt6vectorIiSaIiEEixEm(ptr noundef nonnull align 8 dereferenceable(24) %23, i64 noundef %26) #3
  store i32 %21, ptr %27, align 4
  ret void
}