; Function Attrs: mustprogress nofree norecurse nosync nounwind willreturn memory(readwrite, inaccessiblemem: none) uwtable
define hidden void @_ZN14TravelSalesman12reverseStateEv(ptr nocapture noundef nonnull readonly align 8 dereferenceable(40) %0) local_unnamed_addr #3 align 2 {
  %2 = getelementptr inbounds i8, ptr %0, i64 28
  %3 = load i32, ptr %2, align 4
  %4 = getelementptr inbounds i8, ptr %0, i64 8
  %5 = load ptr, ptr %4, align 8
  %6 = getelementptr inbounds i8, ptr %0, i64 24
  %7 = load i32, ptr %6, align 8
  %8 = sext i32 %7 to i64
  %9 = load ptr, ptr %5, align 8
  %10 = getelementptr inbounds i32, ptr %9, i64 %8
  store i32 %3, ptr %10, align 4
  %11 = getelementptr inbounds i8, ptr %0, i64 32
  %12 = load i32, ptr %11, align 8
  %13 = load ptr, ptr %4, align 8
  %14 = sext i32 %3 to i64
  %15 = load ptr, ptr %13, align 8
  %16 = getelementptr inbounds i32, ptr %15, i64 %14
  store i32 %12, ptr %16, align 4
  %17 = getelementptr inbounds i8, ptr %0, i64 36
  %18 = load i32, ptr %17, align 4
  %19 = load ptr, ptr %4, align 8
  %20 = sext i32 %12 to i64
  %21 = load ptr, ptr %19, align 8
  %22 = getelementptr inbounds i32, ptr %21, i64 %20
  store i32 %18, ptr %22, align 4
  ret void
}